; Function Attrs: mustprogress nofree norecurse nosync nounwind memory(argmem: readwrite) uwtable
define void @_ZN6LibRaw12simple_coeffEi(ptr noundef nonnull align 8 captures(none) dereferenceable(767680) initializes((381484, 381488)) %0, i32 noundef %1) local_unnamed_addr #6 align 2 {
  %3 = getelementptr inbounds nuw i8, ptr %0, i64 381484
  store i32 0, ptr %3, align 4, !tbaa !82
  %4 = getelementptr inbounds nuw i8, ptr %0, i64 540
  %5 = load i32, ptr %4, align 4, !tbaa !6
  %6 = icmp sgt i32 %5, 0
  br i1 %6, label %.preheader.us.preheader, label %.split15.us

.preheader.us.preheader:                          ; preds = %2
  %7 = sext i32 %1 to i64
  %8 = tail call i32 @llvm.umin.i32(i32 %5, i32 4)
  %9 = mul nsw i64 %7, 48
  %10 = shl nuw nsw i32 %8, 2
  %11 = zext nneg i32 %10 to i64
  %12 = add nsw i32 %8, -1
  %13 = zext nneg i32 %12 to i64
  %14 = shl nuw nsw i64 %13, 2
  %15 = add nuw nsw i64 %14, 4
  %invariant.gep = getelementptr inbounds nuw i8, ptr %0, i64 153304
  %16 = getelementptr i8, ptr @_ZZN6LibRaw12simple_coeffEiE5table, i64 %9
  br label %.preheader.us

.preheader.us:                                    ; preds = %.preheader.us.preheader, %.preheader.us
  %indvar = phi i64 [ 0, %.preheader.us.preheader ], [ %indvar.next, %.preheader.us ]
  %17 = shl nuw nsw i64 %indvar, 4
  %gep = getelementptr i8, ptr %invariant.gep, i64 %17
  %18 = mul nuw nsw i64 %indvar, %11
  %scevgep17 = getelementptr i8, ptr %16, i64 %18
  tail call void @llvm.memcpy.p0.p0.i64(ptr noundef nonnull align 8 dereferenceable(1) %gep, ptr noundef nonnull align 4 dereferenceable(1) %scevgep17, i64 %15, i1 false), !tbaa !83
  %indvar.next = add nuw nsw i64 %indvar, 1
  %exitcond.not = icmp eq i64 %indvar.next, 3
  br i1 %exitcond.not, label %.split15.us, label %.preheader.us, !llvm.loop !87

.split15.us:                                      ; preds = %.preheader.us, %2
  ret void
}